ccopy_reg
_reconstructor
p0
(cdedupe.datamodel
DataModel
p1
c__builtin__
object
p2
Ntp3
Rp4
(dp5
S'primary_fields'
p6
(lp7
g0
(cdedupe.variables.string
StringType
p8
g2
Ntp9
Rp10
(dp11
S'predicates'
p12
(lp13
g0
(cdedupe.predicates
StringPredicate
p14
g2
Ntp15
Rp16
(dp17
S'_cached_hash'
p18
I-2618975129409614002
sS'__name__'
p19
S'(wholeFieldPredicate, ln)'
p20
sS'func'
p21
cdedupe.predicates
wholeFieldPredicate
p22
sS'field'
p23
S'ln'
p24
sbag0
(g14
g2
Ntp25
Rp26
(dp27
g18
I8169464684385935084
sg19
S'(firstTokenPredicate, ln)'
p28
sg21
cdedupe.predicates
firstTokenPredicate
p29
sg23
g24
sbag0
(g14
g2
Ntp30
Rp31
(dp32
g18
I-291788129697531933
sg19
S'(commonIntegerPredicate, ln)'
p33
sg21
cdedupe.predicates
commonIntegerPredicate
p34
sg23
g24
sbag0
(g14
g2
Ntp35
Rp36
(dp37
g18
I-4358136482779563944
sg19
S'(nearIntegersPredicate, ln)'
p38
sg21
cdedupe.predicates
nearIntegersPredicate
p39
sg23
g24
sbag0
(g14
g2
Ntp40
Rp41
(dp42
g18
I2567581120583672703
sg19
S'(firstIntegerPredicate, ln)'
p43
sg21
cdedupe.predicates
firstIntegerPredicate
p44
sg23
g24
sbag0
(g14
g2
Ntp45
Rp46
(dp47
g18
I5621750957053474822
sg19
S'(alphaNumericPredicate, ln)'
p48
sg21
cdedupe.predicates
alphaNumericPredicate
p49
sg23
g24
sbag0
(g14
g2
Ntp50
Rp51
(dp52
g18
I-8704912921448263617
sg19
S'(sameThreeCharStartPredicate, ln)'
p53
sg21
cdedupe.predicates
sameThreeCharStartPredicate
p54
sg23
g24
sbag0
(g14
g2
Ntp55
Rp56
(dp57
g18
I3839256829014642626
sg19
S'(sameFiveCharStartPredicate, ln)'
p58
sg21
cdedupe.predicates
sameFiveCharStartPredicate
p59
sg23
g24
sbag0
(g14
g2
Ntp60
Rp61
(dp62
g18
I4434765357563461406
sg19
S'(sameSevenCharStartPredicate, ln)'
p63
sg21
cdedupe.predicates
sameSevenCharStartPredicate
p64
sg23
g24
sbag0
(g14
g2
Ntp65
Rp66
(dp67
g18
I-7152225026116515421
sg19
S'(commonTwoTokens, ln)'
p68
sg21
cdedupe.predicates
commonTwoTokens
p69
sg23
g24
sbag0
(g14
g2
Ntp70
Rp71
(dp72
g18
I6080385832810623475
sg19
S'(commonThreeTokens, ln)'
p73
sg21
cdedupe.predicates
commonThreeTokens
p74
sg23
g24
sbag0
(g14
g2
Ntp75
Rp76
(dp77
g18
I-4680092929830082988
sg19
S'(fingerprint, ln)'
p78
sg21
cdedupe.predicates
fingerprint
p79
sg23
g24
sbag0
(g14
g2
Ntp80
Rp81
(dp82
g18
I-2008223113924825940
sg19
S'(oneGramFingerprint, ln)'
p83
sg21
cdedupe.predicates
oneGramFingerprint
p84
sg23
g24
sbag0
(g14
g2
Ntp85
Rp86
(dp87
g18
I2446536375260517782
sg19
S'(twoGramFingerprint, ln)'
p88
sg21
cdedupe.predicates
twoGramFingerprint
p89
sg23
g24
sbag0
(g14
g2
Ntp90
Rp91
(dp92
g18
I7841141806626227580
sg19
S'(sortedAcronym, ln)'
p93
sg21
cdedupe.predicates
sortedAcronym
p94
sg23
g24
sbag0
(g14
g2
Ntp95
Rp96
(dp97
g18
I-3570373027312792013
sg19
S'(commonFourGram, ln)'
p98
sg21
cdedupe.predicates
commonFourGram
p99
sg23
g24
sbag0
(g14
g2
Ntp100
Rp101
(dp102
g18
I-2393539736672546766
sg19
S'(commonSixGram, ln)'
p103
sg21
cdedupe.predicates
commonSixGram
p104
sg23
g24
sbag0
(g14
g2
Ntp105
Rp106
(dp107
g18
I-3985224845081888532
sg19
S'(tokenFieldPredicate, ln)'
p108
sg21
cdedupe.predicates
tokenFieldPredicate
p109
sg23
g24
sbag0
(g14
g2
Ntp110
Rp111
(dp112
g18
I-423495112860029162
sg19
S'(suffixArray, ln)'
p113
sg21
cdedupe.predicates
suffixArray
p114
sg23
g24
sbag0
(g14
g2
Ntp115
Rp116
(dp117
g18
I7325418775454446612
sg19
S'(doubleMetaphone, ln)'
p118
sg21
cdedupe.predicates
doubleMetaphone
p119
sg23
g24
sbag0
(g14
g2
Ntp120
Rp121
(dp122
g18
I7728750110535904989
sg19
S'(metaphoneToken, ln)'
p123
sg21
cdedupe.predicates
metaphoneToken
p124
sg23
g24
sbag0
(cdedupe.predicates
TfidfNGramCanopyPredicate
p125
g2
Ntp126
Rp127
(dp128
S'threshold'
p129
F0.2
sg19
S'(0.2, ln)'
p130
sg23
g24
sbag0
(g125
g2
Ntp131
Rp132
(dp133
g129
F0.4
sg19
S'(0.4, ln)'
p134
sg23
g24
sbag0
(g125
g2
Ntp135
Rp136
(dp137
g129
F0.6
sg19
S'(0.6, ln)'
p138
sg23
g24
sbag0
(g125
g2
Ntp139
Rp140
(dp141
g129
F0.8
sg19
S'(0.8, ln)'
p142
sg23
g24
sbag0
(cdedupe.predicates
TfidfNGramSearchPredicate
p143
g2
Ntp144
Rp145
(dp146
g129
F0.2
sg19
S'(0.2, ln)'
p147
sg23
g24
sbag0
(g143
g2
Ntp148
Rp149
(dp150
g129
F0.4
sg19
S'(0.4, ln)'
p151
sg23
g24
sbag0
(g143
g2
Ntp152
Rp153
(dp154
g129
F0.6
sg19
S'(0.6, ln)'
p155
sg23
g24
sbag0
(g143
g2
Ntp156
Rp157
(dp158
g129
F0.8
sg19
S'(0.8, ln)'
p159
sg23
g24
sbag0
(cdedupe.predicates
TfidfTextCanopyPredicate
p160
g2
Ntp161
Rp162
(dp163
g129
F0.2
sg19
S'(0.2, ln)'
p164
sg23
g24
sbag0
(g160
g2
Ntp165
Rp166
(dp167
g129
F0.4
sg19
S'(0.4, ln)'
p168
sg23
g24
sbag0
(g160
g2
Ntp169
Rp170
(dp171
g129
F0.6
sg19
S'(0.6, ln)'
p172
sg23
g24
sbag0
(g160
g2
Ntp173
Rp174
(dp175
g129
F0.8
sg19
S'(0.8, ln)'
p176
sg23
g24
sbag0
(cdedupe.predicates
TfidfTextSearchPredicate
p177
g2
Ntp178
Rp179
(dp180
g129
F0.2
sg19
S'(0.2, ln)'
p181
sg23
g24
sbag0
(g177
g2
Ntp182
Rp183
(dp184
g129
F0.4
sg19
S'(0.4, ln)'
p185
sg23
g24
sbag0
(g177
g2
Ntp186
Rp187
(dp188
g129
F0.6
sg19
S'(0.6, ln)'
p189
sg23
g24
sbag0
(g177
g2
Ntp190
Rp191
(dp192
g129
F0.8
sg19
S'(0.8, ln)'
p193
sg23
g24
sbag0
(cdedupe.predicates
LevenshteinCanopyPredicate
p194
g2
Ntp195
Rp196
(dp197
g129
I1
sg19
S'(1, ln)'
p198
sg23
g24
sbag0
(g194
g2
Ntp199
Rp200
(dp201
g129
I2
sg19
S'(2, ln)'
p202
sg23
g24
sbag0
(g194
g2
Ntp203
Rp204
(dp205
g129
I3
sg19
S'(3, ln)'
p206
sg23
g24
sbag0
(g194
g2
Ntp207
Rp208
(dp209
g129
I4
sg19
S'(4, ln)'
p210
sg23
g24
sbag0
(cdedupe.predicates
LevenshteinSearchPredicate
p211
g2
Ntp212
Rp213
(dp214
g129
I1
sg19
S'(1, ln)'
p215
sg23
g24
sbag0
(g211
g2
Ntp216
Rp217
(dp218
g129
I2
sg19
S'(2, ln)'
p219
sg23
g24
sbag0
(g211
g2
Ntp220
Rp221
(dp222
g129
I3
sg19
S'(3, ln)'
p223
sg23
g24
sbag0
(g211
g2
Ntp224
Rp225
(dp226
g129
I4
sg19
S'(4, ln)'
p227
sg23
g24
sbasg23
g24
sS'name'
p228
S'(ln: String)'
p229
sS'has_missing'
p230
I00
sS'comparator'
p231
caffinegap.affinegap
normalizedAffineGapDistance
p232
sbag0
(cdedupe.variables.exact
ExactType
p233
g2
Ntp234
Rp235
(dp236
g12
(lp237
g0
(cdedupe.predicates
SimplePredicate
p238
g2
Ntp239
Rp240
(dp241
g18
I3950248985100391314
sg19
S'(wholeFieldPredicate, dob)'
p242
sg21
g22
sg23
S'dob'
p243
sbasg23
g243
sg228
S'(dob: Exact)'
p244
sg230
I00
sbag0
(g233
g2
Ntp245
Rp246
(dp247
g12
(lp248
g0
(g238
g2
Ntp249
Rp250
(dp251
g18
I-2618986129539614295
sg19
S'(wholeFieldPredicate, gn)'
p252
sg21
g22
sg23
S'gn'
p253
sbasg23
g253
sg228
S'(gn: Exact)'
p254
sg230
I00
sbag0
(g8
g2
Ntp255
Rp256
(dp257
g12
(lp258
g0
(g14
g2
Ntp259
Rp260
(dp261
g18
I-2618985129409613916
sg19
S'(wholeFieldPredicate, fn)'
p262
sg21
g22
sg23
S'fn'
p263
sbag0
(g14
g2
Ntp264
Rp265
(dp266
g18
I8169458684161934470
sg19
S'(firstTokenPredicate, fn)'
p267
sg21
g29
sg23
g263
sbag0
(g14
g2
Ntp268
Rp269
(dp270
g18
I-291778129441531255
sg19
S'(commonIntegerPredicate, fn)'
p271
sg21
g34
sg23
g263
sbag0
(g14
g2
Ntp272
Rp273
(dp274
g18
I-4358146482779563854
sg19
S'(nearIntegersPredicate, fn)'
p275
sg21
g39
sg23
g263
sbag0
(g14
g2
Ntp276
Rp277
(dp278
g18
I2567591120551672517
sg19
S'(firstIntegerPredicate, fn)'
p279
sg21
g44
sg23
g263
sbag0
(g14
g2
Ntp280
Rp281
(dp282
g18
I5621760957053474732
sg19
S'(alphaNumericPredicate, fn)'
p283
sg21
g49
sg23
g263
sbag0
(g14
g2
Ntp284
Rp285
(dp286
g18
I-8704906921416263595
sg19
S'(sameThreeCharStartPredicate, fn)'
p287
sg21
g54
sg23
g263
sbag0
(g14
g2
Ntp288
Rp289
(dp290
g18
I3839266829238643256
sg19
S'(sameFiveCharStartPredicate, fn)'
p291
sg21
g59
sg23
g263
sbag0
(g14
g2
Ntp292
Rp293
(dp294
g18
I4434771357787462004
sg19
S'(sameSevenCharStartPredicate, fn)'
p295
sg21
g64
sg23
g263
sbag0
(g14
g2
Ntp296
Rp297
(dp298
g18
I-7152235026372516087
sg19
S'(commonTwoTokens, fn)'
p299
sg21
g69
sg23
g263
sbag0
(g14
g2
Ntp300
Rp301
(dp302
g18
I6080379832842623625
sg19
S'(commonThreeTokens, fn)'
p303
sg21
g74
sg23
g263
sbag0
(g14
g2
Ntp304
Rp305
(dp306
g18
I-4680098929862083010
sg19
S'(fingerprint, fn)'
p307
sg21
g79
sg23
g263
sbag0
(g14
g2
Ntp308
Rp309
(dp310
g18
I-2008233114180826618
sg19
S'(oneGramFingerprint, fn)'
p311
sg21
g84
sg23
g263
sbag0
(g14
g2
Ntp312
Rp313
(dp314
g18
I2446546375260517692
sg19
S'(twoGramFingerprint, fn)'
p315
sg21
g89
sg23
g263
sbag0
(g14
g2
Ntp316
Rp317
(dp318
g18
I7841147806594227414
sg19
S'(sortedAcronym, fn)'
p319
sg21
g94
sg23
g263
sbag0
(g14
g2
Ntp320
Rp321
(dp322
g18
I-3570379027344792039
sg19
S'(commonFourGram, fn)'
p323
sg21
g99
sg23
g263
sbag0
(g14
g2
Ntp324
Rp325
(dp326
g18
I-2393545736704546792
sg19
S'(commonSixGram, fn)'
p327
sg21
g104
sg23
g263
sbag0
(g14
g2
Ntp328
Rp329
(dp330
g18
I-3985230845305889146
sg19
S'(tokenFieldPredicate, fn)'
p331
sg21
g109
sg23
g263
sbag0
(g14
g2
Ntp332
Rp333
(dp334
g18
I-423505112860029060
sg19
S'(suffixArray, fn)'
p335
sg21
g114
sg23
g263
sbag0
(g14
g2
Ntp336
Rp337
(dp338
g18
I7325412775486446782
sg19
S'(doubleMetaphone, fn)'
p339
sg21
g119
sg23
g263
sbag0
(g14
g2
Ntp340
Rp341
(dp342
g18
I7728756110503904823
sg19
S'(metaphoneToken, fn)'
p343
sg21
g124
sg23
g263
sbag0
(g125
g2
Ntp344
Rp345
(dp346
g129
F0.2
sg19
S'(0.2, fn)'
p347
sg23
g263
sbag0
(g125
g2
Ntp348
Rp349
(dp350
g129
F0.4
sg19
S'(0.4, fn)'
p351
sg23
g263
sbag0
(g125
g2
Ntp352
Rp353
(dp354
g129
F0.6
sg19
S'(0.6, fn)'
p355
sg23
g263
sbag0
(g125
g2
Ntp356
Rp357
(dp358
g129
F0.8
sg19
S'(0.8, fn)'
p359
sg23
g263
sbag0
(g143
g2
Ntp360
Rp361
(dp362
g129
F0.2
sg19
S'(0.2, fn)'
p363
sg23
g263
sbag0
(g143
g2
Ntp364
Rp365
(dp366
g129
F0.4
sg19
S'(0.4, fn)'
p367
sg23
g263
sbag0
(g143
g2
Ntp368
Rp369
(dp370
g129
F0.6
sg19
S'(0.6, fn)'
p371
sg23
g263
sbag0
(g143
g2
Ntp372
Rp373
(dp374
g129
F0.8
sg19
S'(0.8, fn)'
p375
sg23
g263
sbag0
(g160
g2
Ntp376
Rp377
(dp378
g129
F0.2
sg19
S'(0.2, fn)'
p379
sg23
g263
sbag0
(g160
g2
Ntp380
Rp381
(dp382
g129
F0.4
sg19
S'(0.4, fn)'
p383
sg23
g263
sbag0
(g160
g2
Ntp384
Rp385
(dp386
g129
F0.6
sg19
S'(0.6, fn)'
p387
sg23
g263
sbag0
(g160
g2
Ntp388
Rp389
(dp390
g129
F0.8
sg19
S'(0.8, fn)'
p391
sg23
g263
sbag0
(g177
g2
Ntp392
Rp393
(dp394
g129
F0.2
sg19
S'(0.2, fn)'
p395
sg23
g263
sbag0
(g177
g2
Ntp396
Rp397
(dp398
g129
F0.4
sg19
S'(0.4, fn)'
p399
sg23
g263
sbag0
(g177
g2
Ntp400
Rp401
(dp402
g129
F0.6
sg19
S'(0.6, fn)'
p403
sg23
g263
sbag0
(g177
g2
Ntp404
Rp405
(dp406
g129
F0.8
sg19
S'(0.8, fn)'
p407
sg23
g263
sbag0
(g194
g2
Ntp408
Rp409
(dp410
g129
I1
sg19
S'(1, fn)'
p411
sg23
g263
sbag0
(g194
g2
Ntp412
Rp413
(dp414
g129
I2
sg19
S'(2, fn)'
p415
sg23
g263
sbag0
(g194
g2
Ntp416
Rp417
(dp418
g129
I3
sg19
S'(3, fn)'
p419
sg23
g263
sbag0
(g194
g2
Ntp420
Rp421
(dp422
g129
I4
sg19
S'(4, fn)'
p423
sg23
g263
sbag0
(g211
g2
Ntp424
Rp425
(dp426
g129
I1
sg19
S'(1, fn)'
p427
sg23
g263
sbag0
(g211
g2
Ntp428
Rp429
(dp430
g129
I2
sg19
S'(2, fn)'
p431
sg23
g263
sbag0
(g211
g2
Ntp432
Rp433
(dp434
g129
I3
sg19
S'(3, fn)'
p435
sg23
g263
sbag0
(g211
g2
Ntp436
Rp437
(dp438
g129
I4
sg19
S'(4, fn)'
p439
sg23
g263
sbasg23
g263
sg228
S'(fn: String)'
p440
sg230
I00
sg231
g232
sbasS'_variables'
p441
(lp442
g10
ag235
ag246
ag256
asS'_missing_field_indices'
p443
(lp444
sS'_derived_start'
p445
I4
sS'_interaction_indices'
p446
(lp447
sb.ccopy_reg
_reconstructor
p0
(crlr.lr
RegularizedLogisticRegression
p1
c__builtin__
object
p2
Ntp3
Rp4
(dp5
S'alpha'
p6
I1
sS'bias'
p7
cnumpy.core.multiarray
scalar
p8
(cnumpy
dtype
p9
(S'f8'
p10
I0
I1
tp11
Rp12
(I3
S'<'
p13
NNNI-1
I-1
I0
tp14
bS'\xdc\x8d\x0f\xfbeR\xd3\xbf'
p15
tp16
Rp17
sS'num_cores'
p18
I0
sS'cv'
p19
I3
sS'weights'
p20
cnumpy.core.multiarray
_reconstruct
p21
(cnumpy
ndarray
p22
(I0
tp23
S'b'
p24
tp25
Rp26
(I1
(I4
tp27
g12
I00
S'\xf6F\x94\xca\x82\xc5\xe8\xbf\x7f\xf0\ro\xe4\xc0\xde?\x141\xcb\xffl\x12\xb0?\xaf\t\xb0\xa0S\xce\xe0\xbf'
p28
tp29
bsb.(ccopy_reg
_reconstructor
p0
(cdedupe.predicates
CompoundPredicate
p1
c__builtin__
tuple
p2
(g0
(cdedupe.predicates
StringPredicate
p3
c__builtin__
object
p4
Ntp5
Rp6
(dp7
S'_cached_hash'
p8
I-2393539736672546766
sS'__name__'
p9
S'(commonSixGram, ln)'
p10
sS'func'
p11
cdedupe.predicates
commonSixGram
p12
sS'field'
p13
S'ln'
p14
sbg0
(cdedupe.predicates
SimplePredicate
p15
g4
Ntp16
Rp17
(dp18
g8
I3950248985100391314
sg9
S'(wholeFieldPredicate, dob)'
p19
sg11
cdedupe.predicates
wholeFieldPredicate
p20
sg13
S'dob'
p21
sbtp22
tp23
Rp24
(dp25
S'count'
p26
F129.0
sbtp27
.